target datalayout = "e-m:e-p270:32:32-p271:32:32-p272:64:64-i64:64-i128:128-f80:128-n8:16:32:64-S128"
target triple = "x86_64-unknown-linux-gnu"

%"class.llvh::StringRef" = type { ptr, i64 }
%"struct.hermes::IRPrinter" = type { ptr, i32, ptr, ptr, i8, [7 x i8], %"struct.hermes::InstructionNamer", %"struct.hermes::InstructionNamer", %"struct.hermes::InstructionNamer" }
%"struct.hermes::InstructionNamer" = type <{ %"class.std::map", i32, [4 x i8] }>
%"class.std::map" = type { %"class.std::_Rb_tree" }
%"class.std::_Rb_tree" = type { %"struct.std::_Rb_tree<hermes::Value *, std::pair<hermes::Value *const, unsigned int>, std::_Select1st<std::pair<hermes::Value *const, unsigned int>>, std::less<hermes::Value *>>::_Rb_tree_impl" }
%"struct.std::_Rb_tree<hermes::Value *, std::pair<hermes::Value *const, unsigned int>, std::_Select1st<std::pair<hermes::Value *const, unsigned int>>, std::less<hermes::Value *>>::_Rb_tree_impl" = type { %"struct.std::_Rb_tree_key_compare", %"struct.std::_Rb_tree_header" }
%"struct.std::_Rb_tree_key_compare" = type { %"struct.std::less" }
%"struct.std::less" = type { i8 }
%"struct.std::_Rb_tree_header" = type { %"struct.std::_Rb_tree_node_base", i64 }
%"struct.std::_Rb_tree_node_base" = type { i32, ptr, ptr, ptr }
%"class.hermes::Type" = type { i16, i16 }
%"class.hermes::Identifier" = type { ptr }
%"class.llvh::raw_ostream" = type <{ ptr, ptr, ptr, ptr, i32, [4 x i8] }>
%"class.hermes::Value" = type { i8, %"class.hermes::Type", %"class.llvh::SmallVector" }
%"class.llvh::SmallVector" = type { %"class.llvh::SmallVectorImpl", %"struct.llvh::SmallVectorStorage" }
%"class.llvh::SmallVectorImpl" = type { %"class.llvh::SmallVectorTemplateBase" }
%"class.llvh::SmallVectorTemplateBase" = type { %"class.llvh::SmallVectorTemplateCommon" }
%"class.llvh::SmallVectorTemplateCommon" = type { %"class.llvh::SmallVectorBase" }
%"class.llvh::SmallVectorBase" = type { ptr, i32, i32 }
%"struct.llvh::SmallVectorStorage" = type { [2 x %"struct.llvh::AlignedCharArrayUnion"] }
%"struct.llvh::AlignedCharArrayUnion" = type { %"struct.llvh::AlignedCharArray" }
%"struct.llvh::AlignedCharArray" = type { [8 x i8] }
%"class.llvh::ilist_node_base" = type { ptr, ptr }
%"class.llvh::SMLoc" = type { ptr }
%"class.llvh::ilist_node_impl.50" = type { %"class.llvh::ilist_node_base" }
%"class.hermes::ScopeDesc" = type <{ %"class.hermes::Value", ptr, %"class.llvh::SmallVector.51", %"class.std::shared_ptr.57", ptr, %"class.llvh::SmallVector.60", i8, [7 x i8] }>
%"class.llvh::SmallVector.51" = type { %"class.llvh::SmallVectorImpl.52", %"struct.llvh::SmallVectorStorage.55" }
%"class.llvh::SmallVectorImpl.52" = type { %"class.llvh::SmallVectorTemplateBase.53" }
%"class.llvh::SmallVectorTemplateBase.53" = type { %"class.llvh::SmallVectorTemplateCommon.54" }
%"class.llvh::SmallVectorTemplateCommon.54" = type { %"class.llvh::SmallVectorBase" }
%"struct.llvh::SmallVectorStorage.55" = type { [8 x %"struct.llvh::AlignedCharArrayUnion.56"] }
%"struct.llvh::AlignedCharArrayUnion.56" = type { %"struct.llvh::AlignedCharArray" }
%"class.std::shared_ptr.57" = type { %"class.std::__shared_ptr.58" }
%"class.std::__shared_ptr.58" = type { ptr, %"class.std::__shared_count" }
%"class.std::__shared_count" = type { ptr }
%"class.llvh::SmallVector.60" = type { %"class.llvh::SmallVectorImpl.61", %"struct.llvh::SmallVectorStorage.64" }
%"class.llvh::SmallVectorImpl.61" = type { %"class.llvh::SmallVectorTemplateBase.62" }
%"class.llvh::SmallVectorTemplateBase.62" = type { %"class.llvh::SmallVectorTemplateCommon.63" }
%"class.llvh::SmallVectorTemplateCommon.63" = type { %"class.llvh::SmallVectorBase" }
%"struct.llvh::SmallVectorStorage.64" = type { [8 x %"struct.llvh::AlignedCharArrayUnion.65"] }
%"struct.llvh::AlignedCharArrayUnion.65" = type { %"struct.llvh::AlignedCharArray" }
%"class.hermes::Function" = type { %"class.llvh::ilist_node_with_parent.66", %"class.hermes::Value", ptr, i8, ptr, %"class.llvh::iplist.69", %"class.llvh::SmallVector.78", %"class.hermes::Identifier", i32, i8, %"class.llvh::SMRange", i32, %"class.hermes::Identifier", ptr, i32, %"class.hermes::OptValue", [4 x i8], %"struct.hermes::LazySource", %"class.std::shared_ptr.57", ptr }
%"class.llvh::ilist_node_with_parent.66" = type { %"class.llvh::ilist_node.67" }
%"class.llvh::ilist_node.67" = type { %"class.llvh::ilist_node_impl.68" }
%"class.llvh::ilist_node_impl.68" = type { %"class.llvh::ilist_node_base" }
%"class.llvh::iplist.69" = type { %"class.llvh::iplist_impl.70" }
%"class.llvh::iplist_impl.70" = type { %"class.llvh::simple_ilist.75" }
%"class.llvh::simple_ilist.75" = type { %"class.llvh::ilist_sentinel.77" }
%"class.llvh::ilist_sentinel.77" = type { %"class.llvh::ilist_node_impl.50" }
%"class.llvh::SmallVector.78" = type { %"class.llvh::SmallVectorImpl.79", %"struct.llvh::SmallVectorStorage.82" }
%"class.llvh::SmallVectorImpl.79" = type { %"class.llvh::SmallVectorTemplateBase.80" }
%"class.llvh::SmallVectorTemplateBase.80" = type { %"class.llvh::SmallVectorTemplateCommon.81" }
%"class.llvh::SmallVectorTemplateCommon.81" = type { %"class.llvh::SmallVectorBase" }
%"struct.llvh::SmallVectorStorage.82" = type { [8 x %"struct.llvh::AlignedCharArrayUnion.83"] }
%"struct.llvh::AlignedCharArrayUnion.83" = type { %"struct.llvh::AlignedCharArray" }
%"class.llvh::SMRange" = type { %"class.llvh::SMLoc", %"class.llvh::SMLoc" }
%"class.hermes::OptValue" = type <{ i32, i8, [3 x i8] }>
%"struct.hermes::LazySource" = type <{ i32, i32, %"class.llvh::SMRange", i8, i8, [6 x i8] }>

@.str.31 = private unnamed_addr constant [3 x i8] c"S{\00", align 1
@.str.32 = private unnamed_addr constant [2 x i8] c"}\00", align 1

; Function Attrs: mustprogress nounwind uwtable
define linkonce_odr hidden noundef nonnull align 8 dereferenceable(36) ptr @_ZN4llvh11raw_ostreamlsENS_9StringRefE(ptr noundef nonnull align 8 dereferenceable(36) %this, ptr %Str.coerce0, i64 %Str.coerce1) #0 comdat align 2 {
entry:
  %this.addr.i11 = alloca ptr, align 8
  %this.addr.i9 = alloca ptr, align 8
  %this.addr.i = alloca ptr, align 8
  %retval = alloca ptr, align 8
  %Str = alloca %"class.llvh::StringRef", align 8
  %this.addr = alloca ptr, align 8
  %Size = alloca i64, align 8
  %0 = getelementptr inbounds { ptr, i64 }, ptr %Str, i32 0, i32 0
  store ptr %Str.coerce0, ptr %0, align 8
  %1 = getelementptr inbounds { ptr, i64 }, ptr %Str, i32 0, i32 1
  store i64 %Str.coerce1, ptr %1, align 8
  store ptr %this, ptr %this.addr, align 8
  %this1 = load ptr, ptr %this.addr, align 8
  store ptr %Str, ptr %this.addr.i, align 8
  %this1.i = load ptr, ptr %this.addr.i, align 8
  %Length.i = getelementptr inbounds %"class.llvh::StringRef", ptr %this1.i, i32 0, i32 1
  %2 = load i64, ptr %Length.i, align 8
  store i64 %2, ptr %Size, align 8
  %3 = load i64, ptr %Size, align 8
  %OutBufEnd = getelementptr inbounds %"class.llvh::raw_ostream", ptr %this1, i32 0, i32 2
  %4 = load ptr, ptr %OutBufEnd, align 8
  %OutBufCur = getelementptr inbounds %"class.llvh::raw_ostream", ptr %this1, i32 0, i32 3
  %5 = load ptr, ptr %OutBufCur, align 8
  %sub.ptr.lhs.cast = ptrtoint ptr %4 to i64
  %sub.ptr.rhs.cast = ptrtoint ptr %5 to i64
  %sub.ptr.sub = sub i64 %sub.ptr.lhs.cast, %sub.ptr.rhs.cast
  %cmp = icmp ugt i64 %3, %sub.ptr.sub
  br i1 %cmp, label %if.then, label %if.end

if.then:                                          ; preds = %entry
  store ptr %Str, ptr %this.addr.i11, align 8
  %this1.i12 = load ptr, ptr %this.addr.i11, align 8
  %6 = load ptr, ptr %this1.i12, align 8
  %7 = load i64, ptr %Size, align 8
  %call3 = call noundef nonnull align 8 dereferenceable(36) ptr @_ZN4llvh11raw_ostream5writeEPKcm(ptr noundef nonnull align 8 dereferenceable(36) %this1, ptr noundef %6, i64 noundef %7)
  store ptr %call3, ptr %retval, align 8
  br label %return

if.end:                                           ; preds = %entry
  %8 = load i64, ptr %Size, align 8
  %tobool = icmp ne i64 %8, 0
  br i1 %tobool, label %if.then4, label %if.end8

if.then4:                                         ; preds = %if.end
  %OutBufCur5 = getelementptr inbounds %"class.llvh::raw_ostream", ptr %this1, i32 0, i32 3
  %9 = load ptr, ptr %OutBufCur5, align 8
  store ptr %Str, ptr %this.addr.i9, align 8
  %this1.i10 = load ptr, ptr %this.addr.i9, align 8
  %10 = load ptr, ptr %this1.i10, align 8
  %11 = load i64, ptr %Size, align 8
  call void @llvm.memcpy.p0.p0.i64(ptr align 1 %9, ptr align 1 %10, i64 %11, i1 false)
  %12 = load i64, ptr %Size, align 8
  %OutBufCur7 = getelementptr inbounds %"class.llvh::raw_ostream", ptr %this1, i32 0, i32 3
  %13 = load ptr, ptr %OutBufCur7, align 8
  %add.ptr = getelementptr inbounds i8, ptr %13, i64 %12
  store ptr %add.ptr, ptr %OutBufCur7, align 8
  br label %if.end8

if.end8:                                          ; preds = %if.then4, %if.end
  store ptr %this1, ptr %retval, align 8
  br label %return

return:                                           ; preds = %if.end8, %if.then
  %14 = load ptr, ptr %retval, align 8
  ret ptr %14
}

; Function Attrs: mustprogress nounwind uwtable
define linkonce_odr hidden noundef ptr @_ZNK6hermes8Function20getFunctionScopeDescEv(ptr noundef nonnull align 8 dereferenceable(304) %this) #0 comdat align 2 {
entry:
  %this.addr = alloca ptr, align 8
  store ptr %this, ptr %this.addr, align 8
  %this1 = load ptr, ptr %this.addr, align 8
  %scopeDesc_ = getelementptr inbounds %"class.hermes::Function", ptr %this1, i32 0, i32 4
  %0 = load ptr, ptr %scopeDesc_, align 8
  ret ptr %0
}

; Function Attrs: mustprogress nounwind uwtable
define linkonce_odr hidden noundef ptr @_ZNK6hermes9ScopeDesc11getFunctionEv(ptr noundef nonnull align 8 dereferenceable(233) %this) #0 comdat align 2 {
entry:
  %this.addr = alloca ptr, align 8
  store ptr %this, ptr %this.addr, align 8
  %this1 = load ptr, ptr %this.addr, align 8
  %function_ = getelementptr inbounds %"class.hermes::ScopeDesc", ptr %this1, i32 0, i32 4
  %0 = load ptr, ptr %function_, align 8
  ret ptr %0
}

; Function Attrs: mustprogress nounwind uwtable
define linkonce_odr hidden noundef nonnull align 8 dereferenceable(36) ptr @_ZN4llvh11raw_ostreamlsEPKc(ptr noundef nonnull align 8 dereferenceable(36) %this, ptr noundef %Str) #0 comdat align 2 {
entry:
  %this.addr.i = alloca ptr, align 8
  %Str.addr.i = alloca ptr, align 8
  %this.addr = alloca ptr, align 8
  %Str.addr = alloca ptr, align 8
  %agg.tmp = alloca %"class.llvh::StringRef", align 8
  store ptr %this, ptr %this.addr, align 8
  store ptr %Str, ptr %Str.addr, align 8
  %this1 = load ptr, ptr %this.addr, align 8
  %0 = load ptr, ptr %Str.addr, align 8
  store ptr %agg.tmp, ptr %this.addr.i, align 8
  store ptr %0, ptr %Str.addr.i, align 8
  %this1.i = load ptr, ptr %this.addr.i, align 8
  %1 = load ptr, ptr %Str.addr.i, align 8
  store ptr %1, ptr %this1.i, align 8
  %Length.i = getelementptr inbounds %"class.llvh::StringRef", ptr %this1.i, i32 0, i32 1
  %2 = load ptr, ptr %Str.addr.i, align 8
  %tobool.i = icmp ne ptr %2, null
  br i1 %tobool.i, label %cond.true.i, label %cond.false.i

cond.true.i:                                      ; preds = %entry
  %3 = load ptr, ptr %Str.addr.i, align 8
  %call.i = call i64 @strlen(ptr noundef %3) #10
  br label %_ZN4llvh9StringRefC2EPKc.exit

cond.false.i:                                     ; preds = %entry
  br label %_ZN4llvh9StringRefC2EPKc.exit

_ZN4llvh9StringRefC2EPKc.exit:                    ; preds = %cond.false.i, %cond.true.i
  %cond.i = phi i64 [ %call.i, %cond.true.i ], [ 0, %cond.false.i ]
  store i64 %cond.i, ptr %Length.i, align 8
  %4 = getelementptr inbounds { ptr, i64 }, ptr %agg.tmp, i32 0, i32 0
  %5 = load ptr, ptr %4, align 8
  %6 = getelementptr inbounds { ptr, i64 }, ptr %agg.tmp, i32 0, i32 1
  %7 = load i64, ptr %6, align 8
  %call = call noundef nonnull align 8 dereferenceable(36) ptr @_ZN4llvh11raw_ostreamlsENS_9StringRefE(ptr noundef nonnull align 8 dereferenceable(36) %this1, ptr %5, i64 %7)
  ret ptr %call
}

; Function Attrs: mustprogress nounwind uwtable
define hidden void @_ZN6hermes9IRPrinter15printScopeLabelEPNS_9ScopeDescE(ptr noundef nonnull align 8 dereferenceable(208) %this, ptr noundef %S) #0 align 2 {
entry:
  %this.addr = alloca ptr, align 8
  %S.addr = alloca ptr, align 8
  store ptr %this, ptr %this.addr, align 8
  store ptr %S, ptr %S.addr, align 8
  %this1 = load ptr, ptr %this.addr, align 8
  %os = getelementptr inbounds %"struct.hermes::IRPrinter", ptr %this1, i32 0, i32 3
  %0 = load ptr, ptr %os, align 8
  %call = call noundef nonnull align 8 dereferenceable(36) ptr @_ZN4llvh11raw_ostreamlsEPKc(ptr noundef nonnull align 8 dereferenceable(36) %0, ptr noundef @.str.31)
  %1 = load ptr, ptr %S.addr, align 8
  %call2 = call noundef ptr @_ZNK6hermes9ScopeDesc11getFunctionEv(ptr noundef nonnull align 8 dereferenceable(233) %1)
  call void @_ZN6hermes9IRPrinter17printFunctionNameEPNS_8FunctionENS0_19PrintFunctionParamsE(ptr noundef nonnull align 8 dereferenceable(208) %this1, ptr noundef %call2, i32 noundef 0)
  %2 = load ptr, ptr %S.addr, align 8
  %3 = load ptr, ptr %S.addr, align 8
  %call3 = call noundef ptr @_ZNK6hermes9ScopeDesc11getFunctionEv(ptr noundef nonnull align 8 dereferenceable(233) %3)
  %call4 = call noundef ptr @_ZNK6hermes8Function20getFunctionScopeDescEv(ptr noundef nonnull align 8 dereferenceable(304) %call3)
  call void @_ZN6hermes9IRPrinter15printScopeRangeEPNS_9ScopeDescES2_(ptr noundef nonnull align 8 dereferenceable(208) %this1, ptr noundef %2, ptr noundef %call4)
  %os5 = getelementptr inbounds %"struct.hermes::IRPrinter", ptr %this1, i32 0, i32 3
  %4 = load ptr, ptr %os5, align 8
  %call6 = call noundef nonnull align 8 dereferenceable(36) ptr @_ZN4llvh11raw_ostreamlsEPKc(ptr noundef nonnull align 8 dereferenceable(36) %4, ptr noundef @.str.32)
  ret void
}