; Function Attrs: mustprogress nounwind uwtable
define hidden void @_ZN6hermes9IRPrinter15printScopeLabelEPNS_9ScopeDescE(ptr noundef nonnull align 8 dereferenceable(208) %this, ptr noundef %S) local_unnamed_addr #0 align 2 {
entry:
  %os = getelementptr inbounds i8, ptr %this, i64 24
  %0 = load ptr, ptr %os, align 8
  %OutBufEnd.i5.i = getelementptr inbounds i8, ptr %0, i64 16
  %1 = load ptr, ptr %OutBufEnd.i5.i, align 8
  %OutBufCur.i6.i = getelementptr inbounds i8, ptr %0, i64 24
  %2 = load ptr, ptr %OutBufCur.i6.i, align 8
  %sub.ptr.lhs.cast.i7.i = ptrtoint ptr %1 to i64
  %sub.ptr.rhs.cast.i8.i = ptrtoint ptr %2 to i64
  %sub.ptr.sub.i9.i = sub i64 %sub.ptr.lhs.cast.i7.i, %sub.ptr.rhs.cast.i8.i
  %cmp.i.i = icmp ult i64 %sub.ptr.sub.i9.i, 2
  br i1 %cmp.i.i, label %if.then.i.i, label %if.then4.i.i

if.then.i.i:                                      ; preds = %entry
  %call3.i.i = tail call noundef nonnull align 8 dereferenceable(36) ptr @_ZN4llvh11raw_ostream5writeEPKcm(ptr noundef nonnull align 8 dereferenceable(36) %0, ptr noundef nonnull @.str.31, i64 noundef 2) #13
  br label %_ZN4llvh11raw_ostreamlsEPKc.exit

if.then4.i.i:                                     ; preds = %entry
  store i16 31571, ptr %2, align 1
  %3 = load ptr, ptr %OutBufCur.i6.i, align 8
  %add.ptr.i.i = getelementptr inbounds i8, ptr %3, i64 2
  store ptr %add.ptr.i.i, ptr %OutBufCur.i6.i, align 8
  br label %_ZN4llvh11raw_ostreamlsEPKc.exit

_ZN4llvh11raw_ostreamlsEPKc.exit:                 ; preds = %if.then.i.i, %if.then4.i.i
  %function_.i = getelementptr inbounds i8, ptr %S, i64 144
  %4 = load ptr, ptr %function_.i, align 8
  tail call void @_ZN6hermes9IRPrinter17printFunctionNameEPNS_8FunctionENS0_19PrintFunctionParamsE(ptr noundef nonnull align 8 dereferenceable(208) %this, ptr noundef %4, i32 noundef 0)
  %5 = load ptr, ptr %function_.i, align 8
  %scopeDesc_.i = getelementptr inbounds i8, ptr %5, i64 72
  %6 = load ptr, ptr %scopeDesc_.i, align 8
  tail call void @_ZN6hermes9IRPrinter15printScopeRangeEPNS_9ScopeDescES2_(ptr noundef nonnull align 8 dereferenceable(208) %this, ptr noundef nonnull %S, ptr noundef %6)
  %7 = load ptr, ptr %os, align 8
  %OutBufEnd.i5.i5 = getelementptr inbounds i8, ptr %7, i64 16
  %8 = load ptr, ptr %OutBufEnd.i5.i5, align 8
  %OutBufCur.i6.i6 = getelementptr inbounds i8, ptr %7, i64 24
  %9 = load ptr, ptr %OutBufCur.i6.i6, align 8
  %cmp.i.i10 = icmp eq ptr %8, %9
  br i1 %cmp.i.i10, label %if.then.i.i16, label %if.then4.i.i13

if.then.i.i16:                                    ; preds = %_ZN4llvh11raw_ostreamlsEPKc.exit
  %call3.i.i17 = tail call noundef nonnull align 8 dereferenceable(36) ptr @_ZN4llvh11raw_ostream5writeEPKcm(ptr noundef nonnull align 8 dereferenceable(36) %7, ptr noundef nonnull @.str.32, i64 noundef 1) #13
  br label %_ZN4llvh11raw_ostreamlsEPKc.exit18

if.then4.i.i13:                                   ; preds = %_ZN4llvh11raw_ostreamlsEPKc.exit
  store i8 125, ptr %9, align 1
  %10 = load ptr, ptr %OutBufCur.i6.i6, align 8
  %add.ptr.i.i14 = getelementptr inbounds i8, ptr %10, i64 1
  store ptr %add.ptr.i.i14, ptr %OutBufCur.i6.i6, align 8
  br label %_ZN4llvh11raw_ostreamlsEPKc.exit18

_ZN4llvh11raw_ostreamlsEPKc.exit18:               ; preds = %if.then.i.i16, %if.then4.i.i13
  ret void
}